target datalayout = "e-m:e-p270:32:32-p271:32:32-p272:64:64-i64:64-i128:128-f80:128-n8:16:32:64-S128"
target triple = "x86_64-pc-linux-gnu"

%class.LogDecorators = type { i32 }
%class.LogFileOutput = type { %class.LogFileStreamOutput, ptr, ptr, ptr, i32, i32, i32, i8, i64, i64, i64, %class.Semaphore }
%class.LogFileStreamOutput = type { %class.LogOutput.base, i8, i8, ptr, [12 x i64] }
%class.LogOutput.base = type <{ ptr, i8, [7 x i8], %class.stringStream, %class.LogDecorators }>
%class.stringStream = type <{ %class.outputStream, ptr, i64, i64, i8, [48 x i8], [7 x i8] }>
%class.outputStream = type { ptr, i32, i8, i32, i64, %class.TimeStamp, ptr, i64 }
%class.TimeStamp = type { i64 }
%class.Semaphore = type { %class.PosixSemaphore }
%class.PosixSemaphore = type { %union.sem_t }
%union.sem_t = type { i64, [24 x i8] }

@.str.9 = private unnamed_addr constant [9 x i8] c"filesize\00", align 1
@.str.10 = private unnamed_addr constant [10 x i8] c"filecount\00", align 1
@.str.13 = private unnamed_addr constant [44 x i8] c"Invalid option: %s must be in range [0, %u]\00", align 1
@.str.14 = private unnamed_addr constant [45 x i8] c"Invalid option: %s must be in range [0, %lu]\00", align 1

; Function Attrs: mustprogress nounwind uwtable
define internal noundef i64 @_ZL11parse_valuePKc(ptr noundef %0) #1 {
  %2 = alloca i64, align 8
  %3 = alloca ptr, align 8
  %4 = alloca ptr, align 8
  %5 = alloca i64, align 8
  store ptr %0, ptr %3, align 8
  %6 = load ptr, ptr %3, align 8
  %7 = call i64 @strtoull(ptr noundef %6, ptr noundef %4, i32 noundef 10) #9
  store i64 %7, ptr %5, align 8
  %8 = load ptr, ptr %3, align 8
  %9 = load i8, ptr %8, align 1
  %10 = sext i8 %9 to i32
  %11 = call i32 @isdigit(i32 noundef %10) #8
  %12 = icmp ne i32 %11, 0
  br i1 %12, label %13, label %23

13:                                               ; preds = %1
  %14 = load ptr, ptr %4, align 8
  %15 = load ptr, ptr %3, align 8
  %16 = load ptr, ptr %3, align 8
  %17 = call i64 @strlen(ptr noundef %16) #8
  %18 = getelementptr inbounds i8, ptr %15, i64 %17
  %19 = icmp ne ptr %14, %18
  br i1 %19, label %23, label %20

20:                                               ; preds = %13
  %21 = load i64, ptr %5, align 8
  %22 = icmp uge i64 %21, -1
  br i1 %22, label %23, label %24

23:                                               ; preds = %20, %13, %1
  store i64 -1, ptr %2, align 8
  br label %26

24:                                               ; preds = %20
  %25 = load i64, ptr %5, align 8
  store i64 %25, ptr %2, align 8
  br label %26

26:                                               ; preds = %24, %23
  %27 = load i64, ptr %2, align 8
  ret i64 %27
}

; Function Attrs: mustprogress nounwind uwtable
define hidden noundef zeroext i1 @_ZN13LogFileOutput10set_optionEPKcS1_P12outputStream(ptr noundef nonnull align 8 dereferenceable(360) %0, ptr noundef %1, ptr noundef %2, ptr noundef %3) unnamed_addr #1 align 2 {
  %5 = alloca ptr, align 8
  %6 = alloca ptr, align 8
  %7 = alloca ptr, align 8
  %8 = alloca ptr, align 8
  %9 = alloca i8, align 1
  %10 = alloca i64, align 8
  %11 = alloca i64, align 8
  store ptr %0, ptr %5, align 8
  store ptr %1, ptr %6, align 8
  store ptr %2, ptr %7, align 8
  store ptr %3, ptr %8, align 8
  %12 = load ptr, ptr %5, align 8
  %13 = load ptr, ptr %6, align 8
  %14 = load ptr, ptr %7, align 8
  %15 = load ptr, ptr %8, align 8
  %16 = call noundef zeroext i1 @_ZN19LogFileStreamOutput10set_optionEPKcS1_P12outputStream(ptr noundef nonnull align 8 dereferenceable(264) %12, ptr noundef %13, ptr noundef %14, ptr noundef %15)
  %17 = zext i1 %16 to i8
  store i8 %17, ptr %9, align 1
  %18 = load i8, ptr %9, align 1
  %19 = trunc i8 %18 to i1
  br i1 %19, label %58, label %20

20:                                               ; preds = %4
  %21 = load ptr, ptr %6, align 8
  %22 = call i32 @strcmp(ptr noundef @.str.10, ptr noundef %21) #8
  %23 = icmp eq i32 %22, 0
  br i1 %23, label %24, label %37

24:                                               ; preds = %20
  %25 = load ptr, ptr %7, align 8
  %26 = call noundef i64 @_ZL11parse_valuePKc(ptr noundef %25)
  store i64 %26, ptr %10, align 8
  %27 = load i64, ptr %10, align 8
  %28 = icmp ugt i64 %27, 1000
  br i1 %28, label %29, label %31

29:                                               ; preds = %24
  %30 = load ptr, ptr %8, align 8
  call void (ptr, ptr, ...) @_ZN12outputStream8print_crEPKcz(ptr noundef nonnull align 8 dereferenceable(56) %30, ptr noundef @.str.13, ptr noundef @.str.10, i32 noundef 1000)
  br label %36

31:                                               ; preds = %24
  %32 = load i64, ptr %10, align 8
  %33 = trunc i64 %32 to i32
  %34 = getelementptr inbounds %class.LogFileOutput, ptr %12, i32 0, i32 5
  store i32 %33, ptr %34, align 4
  %35 = getelementptr inbounds %class.LogFileOutput, ptr %12, i32 0, i32 7
  store i8 0, ptr %35, align 4
  store i8 1, ptr %9, align 1
  br label %36

36:                                               ; preds = %31, %29
  br label %57

37:                                               ; preds = %20
  %38 = load ptr, ptr %6, align 8
  %39 = call i32 @strcmp(ptr noundef @.str.9, ptr noundef %38) #8
  %40 = icmp eq i32 %39, 0
  br i1 %40, label %41, label %56

41:                                               ; preds = %37
  %42 = load ptr, ptr %7, align 8
  %43 = call noundef zeroext i1 @_ZN9Arguments9atojulongEPKcPm(ptr noundef %42, ptr noundef %11)
  %44 = zext i1 %43 to i8
  store i8 %44, ptr %9, align 1
  %45 = load i8, ptr %9, align 1
  %46 = trunc i8 %45 to i1
  br i1 %46, label %47, label %50

47:                                               ; preds = %41
  %48 = load i64, ptr %11, align 8
  %49 = icmp ugt i64 %48, -1
  br i1 %49, label %50, label %52

50:                                               ; preds = %47, %41
  %51 = load ptr, ptr %8, align 8
  call void (ptr, ptr, ...) @_ZN12outputStream8print_crEPKcz(ptr noundef nonnull align 8 dereferenceable(56) %51, ptr noundef @.str.14, ptr noundef @.str.9, i64 noundef -1)
  store i8 0, ptr %9, align 1
  br label %55

52:                                               ; preds = %47
  %53 = load i64, ptr %11, align 8
  %54 = getelementptr inbounds %class.LogFileOutput, ptr %12, i32 0, i32 9
  store i64 %53, ptr %54, align 8
  store i8 1, ptr %9, align 1
  br label %55

55:                                               ; preds = %52, %50
  br label %56

56:                                               ; preds = %55, %37
  br label %57

57:                                               ; preds = %56, %36
  br label %58

58:                                               ; preds = %57, %4
  %59 = load i8, ptr %9, align 1
  %60 = trunc i8 %59 to i1
  ret i1 %60
}