; Function Attrs: mustprogress nounwind uwtable
define hidden noundef zeroext i1 @_ZN13LogFileOutput10set_optionEPKcS1_P12outputStream(ptr noundef nonnull align 8 dereferenceable(360) %0, ptr noundef %1, ptr noundef %2, ptr noundef %3) unnamed_addr #0 align 2 {
  %5 = alloca ptr, align 8
  %6 = alloca i64, align 8
  %7 = tail call noundef zeroext i1 @_ZN19LogFileStreamOutput10set_optionEPKcS1_P12outputStream(ptr noundef nonnull align 8 dereferenceable(264) %0, ptr noundef %1, ptr noundef %2, ptr noundef %3) #13
  br i1 %7, label %34, label %8

8:                                                ; preds = %4
  %9 = tail call i32 @strcmp(ptr noundef nonnull dereferenceable(10) @.str.10, ptr noundef nonnull dereferenceable(1) %1) #14
  %10 = icmp eq i32 %9, 0
  br i1 %10, label %11, label %25

11:                                               ; preds = %8
  call void @llvm.lifetime.start.p0(i64 8, ptr nonnull %5)
  %12 = call i64 @strtoull(ptr noundef %2, ptr noundef nonnull %5, i32 noundef 10) #13
  %13 = load i8, ptr %2, align 1
  %14 = sext i8 %13 to i32
  %isdigittmp.i = add nsw i32 %14, -48
  %isdigit.i = icmp ult i32 %isdigittmp.i, 10
  br i1 %isdigit.i, label %15, label %_ZL11parse_valuePKc.exit.thread

15:                                               ; preds = %11
  %16 = load ptr, ptr %5, align 8
  %17 = tail call i64 @strlen(ptr noundef nonnull dereferenceable(1) %2) #14
  %18 = getelementptr inbounds i8, ptr %2, i64 %17
  %.not.i = icmp eq ptr %16, %18
  br i1 %.not.i, label %_ZL11parse_valuePKc.exit, label %_ZL11parse_valuePKc.exit.thread

_ZL11parse_valuePKc.exit.thread:                  ; preds = %11, %15
  call void @llvm.lifetime.end.p0(i64 8, ptr nonnull %5)
  br label %20

_ZL11parse_valuePKc.exit:                         ; preds = %15
  call void @llvm.lifetime.end.p0(i64 8, ptr nonnull %5)
  %19 = icmp ugt i64 %12, 1000
  br i1 %19, label %20, label %21

20:                                               ; preds = %_ZL11parse_valuePKc.exit.thread, %_ZL11parse_valuePKc.exit
  tail call void (ptr, ptr, ...) @_ZN12outputStream8print_crEPKcz(ptr noundef nonnull align 8 dereferenceable(56) %3, ptr noundef nonnull @.str.13, ptr noundef nonnull @.str.10, i32 noundef 1000) #13
  br label %34

21:                                               ; preds = %_ZL11parse_valuePKc.exit
  %22 = trunc nuw nsw i64 %12 to i32
  %23 = getelementptr inbounds i8, ptr %0, i64 292
  store i32 %22, ptr %23, align 4
  %24 = getelementptr inbounds i8, ptr %0, i64 300
  store i8 0, ptr %24, align 4
  br label %34

25:                                               ; preds = %8
  %26 = tail call i32 @strcmp(ptr noundef nonnull dereferenceable(9) @.str.9, ptr noundef nonnull dereferenceable(1) %1) #14
  %27 = icmp eq i32 %26, 0
  br i1 %27, label %28, label %34

28:                                               ; preds = %25
  %29 = call noundef zeroext i1 @_ZN9Arguments9atojulongEPKcPm(ptr noundef %2, ptr noundef nonnull %6) #13
  br i1 %29, label %31, label %30

30:                                               ; preds = %28
  call void (ptr, ptr, ...) @_ZN12outputStream8print_crEPKcz(ptr noundef nonnull align 8 dereferenceable(56) %3, ptr noundef nonnull @.str.14, ptr noundef nonnull @.str.9, i64 noundef -1) #13
  br label %34

31:                                               ; preds = %28
  %32 = load i64, ptr %6, align 8
  %33 = getelementptr inbounds i8, ptr %0, i64 312
  store i64 %32, ptr %33, align 8
  br label %34

34:                                               ; preds = %21, %20, %30, %31, %25, %4
  %.0.shrunk = phi i1 [ true, %4 ], [ false, %20 ], [ true, %21 ], [ false, %30 ], [ true, %31 ], [ false, %25 ]
  ret i1 %.0.shrunk
}